target datalayout = "e-m:e-p270:32:32-p271:32:32-p272:64:64-i64:64-i128:128-f80:128-n8:16:32:64-S128"
target triple = "x86_64-pc-linux-gnu"

%struct.ruby_glob_funcs_t = type { ptr, ptr }
%struct.brace_args = type { %struct.ruby_glob_funcs_t, i64, i32 }

; Function Attrs: nounwind sspstrong uwtable
define internal i32 @glob_brace(ptr noundef %0, i64 noundef %1, ptr noundef %2) #0 {
  %4 = alloca ptr, align 8
  %5 = alloca i64, align 8
  %6 = alloca ptr, align 8
  %7 = alloca ptr, align 8
  store ptr %0, ptr %4, align 8, !tbaa !11
  store i64 %1, ptr %5, align 8, !tbaa !7
  store ptr %2, ptr %6, align 8, !tbaa !14
  call void @llvm.lifetime.start.p0(i64 8, ptr %7) #26
  %8 = load i64, ptr %5, align 8, !tbaa !7
  %9 = inttoptr i64 %8 to ptr
  store ptr %9, ptr %7, align 8, !tbaa !50
  %10 = load ptr, ptr %4, align 8, !tbaa !11
  %11 = load ptr, ptr %7, align 8, !tbaa !50
  %12 = getelementptr inbounds nuw %struct.brace_args, ptr %11, i32 0, i32 2
  %13 = load i32, ptr %12, align 8, !tbaa !43
  %14 = load ptr, ptr %7, align 8, !tbaa !50
  %15 = getelementptr inbounds nuw %struct.brace_args, ptr %14, i32 0, i32 0
  %16 = load ptr, ptr %7, align 8, !tbaa !50
  %17 = getelementptr inbounds nuw %struct.brace_args, ptr %16, i32 0, i32 1
  %18 = load i64, ptr %17, align 8, !tbaa !42
  %19 = load ptr, ptr %6, align 8, !tbaa !14
  %20 = call i32 @ruby_glob0(ptr noundef %10, i32 noundef -100, ptr noundef null, i32 noundef %13, ptr noundef %15, i64 noundef %18, ptr noundef %19)
  call void @llvm.lifetime.end.p0(i64 8, ptr %7) #26
  ret i32 %20
}