; Function Attrs: nounwind sspstrong uwtable
define internal i32 @glob_brace(ptr noundef %0, i64 noundef %1, ptr noundef %2) #0 {
  %4 = inttoptr i64 %1 to ptr
  %5 = getelementptr inbounds nuw i8, ptr %4, i64 24
  %6 = load i32, ptr %5, align 8, !tbaa !44
  %7 = getelementptr inbounds nuw i8, ptr %4, i64 16
  %8 = load i64, ptr %7, align 8, !tbaa !43
  %9 = tail call fastcc i32 @ruby_glob0(ptr noundef %0, i32 noundef -100, ptr noundef null, i32 noundef %6, ptr noundef %4, i64 noundef %8, ptr noundef %2)
  ret i32 %9
}